; Function Attrs: mustprogress nofree norecurse nosync nounwind willreturn memory(read, inaccessiblemem: none) uwtable
define hidden noundef i64 @_ZN6Assimp11B3DImporter9ChunkSizeEv(ptr nocapture noundef nonnull readonly align 8 dereferenceable(312) %this) local_unnamed_addr #10 align 2 {
entry:
  %_M_finish.i.i = getelementptr inbounds i8, ptr %this, i64 112
  %0 = load ptr, ptr %_M_finish.i.i, align 8
  %add.ptr.i.i = getelementptr inbounds i8, ptr %0, i64 -8
  %1 = load i64, ptr %add.ptr.i.i, align 8
  %_pos = getelementptr inbounds i8, ptr %this, i64 72
  %2 = load i64, ptr %_pos, align 8
  %sub = sub i64 %1, %2
  ret i64 %sub
}